; Function Attrs: mustprogress uwtable
define void @_ZN5arrow8internal10ThreadPool30CollectFinishedWorkersUnlockedEv(ptr noundef nonnull readonly align 8 captures(none) dereferenceable(33) %0) local_unnamed_addr #3 align 2 personality ptr @__gxx_personality_v0 {
  %2 = getelementptr inbounds nuw i8, ptr %0, i64 24
  %3 = load ptr, ptr %2, align 8, !tbaa !112
  %4 = getelementptr inbounds nuw i8, ptr %3, i64 208
  %5 = load ptr, ptr %4, align 8, !tbaa !168
  %6 = getelementptr inbounds nuw i8, ptr %3, i64 216
  %7 = load ptr, ptr %6, align 8, !tbaa !168
  %.not7 = icmp eq ptr %5, %7
  br i1 %.not7, label %_ZNSt6vectorISt6threadSaIS0_EE5clearEv.exit, label %.lr.ph

._crit_edge:                                      ; preds = %.lr.ph
  %.pre = load ptr, ptr %2, align 8, !tbaa !112
  %.phi.trans.insert = getelementptr inbounds nuw i8, ptr %.pre, i64 208
  %.pre9 = load ptr, ptr %.phi.trans.insert, align 8, !tbaa !169
  %.phi.trans.insert10 = getelementptr inbounds nuw i8, ptr %.pre, i64 216
  %.pre11 = load ptr, ptr %.phi.trans.insert10, align 8, !tbaa !170
  %8 = getelementptr inbounds nuw i8, ptr %.pre, i64 216
  %.not.i.i = icmp eq ptr %.pre11, %.pre9
  br i1 %.not.i.i, label %_ZNSt6vectorISt6threadSaIS0_EE5clearEv.exit, label %_ZSt8_DestroyISt6threadEvPT_.exit.i.i.i.i.i

9:                                                ; preds = %_ZSt8_DestroyISt6threadEvPT_.exit.i.i.i.i.i
  %10 = getelementptr inbounds nuw i8, ptr %.05.i.i.i.i.i, i64 8
  %.not.i.i.i.i.i = icmp eq ptr %10, %.pre11
  br i1 %.not.i.i.i.i.i, label %_ZSt8_DestroyIPSt6threadS0_EvT_S2_RSaIT0_E.exit.i.i, label %_ZSt8_DestroyISt6threadEvPT_.exit.i.i.i.i.i, !llvm.loop !171

_ZSt8_DestroyISt6threadEvPT_.exit.i.i.i.i.i:      ; preds = %._crit_edge, %9
  %.05.i.i.i.i.i = phi ptr [ %10, %9 ], [ %.pre9, %._crit_edge ]
  %.sroa.0.0.copyload.i.i.i.i.i.i.i.i = load i64, ptr %.05.i.i.i.i.i, align 8, !tbaa !93
  %.not.i.i.i.i.i.i.i = icmp eq i64 %.sroa.0.0.copyload.i.i.i.i.i.i.i.i, 0
  br i1 %.not.i.i.i.i.i.i.i, label %9, label %11

11:                                               ; preds = %_ZSt8_DestroyISt6threadEvPT_.exit.i.i.i.i.i
  tail call void @_ZSt9terminatev() #31
  unreachable

_ZSt8_DestroyIPSt6threadS0_EvT_S2_RSaIT0_E.exit.i.i: ; preds = %9
  store ptr %.pre9, ptr %8, align 8, !tbaa !170
  br label %_ZNSt6vectorISt6threadSaIS0_EE5clearEv.exit

_ZNSt6vectorISt6threadSaIS0_EE5clearEv.exit:      ; preds = %1, %._crit_edge, %_ZSt8_DestroyIPSt6threadS0_EvT_S2_RSaIT0_E.exit.i.i
  ret void

.lr.ph:                                           ; preds = %1, %.lr.ph
  %.sroa.04.08 = phi ptr [ %12, %.lr.ph ], [ %5, %1 ]
  tail call void @_ZNSt6thread4joinEv(ptr noundef nonnull align 8 dereferenceable(8) %.sroa.04.08)
  %12 = getelementptr inbounds nuw i8, ptr %.sroa.04.08, i64 8
  %.not = icmp eq ptr %12, %7
  br i1 %.not, label %._crit_edge, label %.lr.ph
}